target datalayout = "e-m:e-p270:32:32-p271:32:32-p272:64:64-i64:64-i128:128-f80:128-n8:16:32:64-S128"
target triple = "x86_64-pc-linux-gnu"

%class.LibRaw = type { ptr, %struct.libraw_data_t, ptr, %struct.libraw_internal_data_t, [2048 x %struct.decode], ptr, ptr, [10 x %struct.tiff_ifd_t], %class.libraw_memmgr, %struct.libraw_callbacks_t, { i64, i64 }, { i64, i64 }, { i64, i64 }, ptr, ptr, ptr, i64, ptr, ptr, ptr, ptr }
%struct.libraw_data_t = type { ptr, %struct.libraw_image_sizes_t, %struct.libraw_iparams_t, %struct.libraw_lensinfo_t, %struct.libraw_makernotes_t, %struct.libraw_shootinginfo_t, %struct.libraw_output_params_t, %struct.libraw_raw_unpack_params_t, i32, i32, %struct.libraw_colordata_t, %struct.libraw_imgother_t, %struct.libraw_thumbnail_t, %struct.libraw_thumbnail_list_t, %struct.libraw_rawdata_t, ptr }
%struct.libraw_image_sizes_t = type { i16, i16, i16, i16, i16, i16, i16, i16, i32, double, i32, [8 x [4 x i32]], i16, [2 x %struct.libraw_raw_inset_crop_t] }
%struct.libraw_raw_inset_crop_t = type { i16, i16, i16, i16 }
%struct.libraw_iparams_t = type { [4 x i8], [64 x i8], [64 x i8], [64 x i8], [64 x i8], [64 x i8], i32, i32, i32, i32, i32, i32, [6 x [6 x i8]], [6 x [6 x i8]], [5 x i8], i32, ptr }
%struct.libraw_lensinfo_t = type { float, float, float, float, float, [128 x i8], [128 x i8], [128 x i8], [128 x i8], i16, %struct.libraw_nikonlens_t, %struct.libraw_dnglens_t, %struct.libraw_makernotes_lens_t }
%struct.libraw_nikonlens_t = type { float, i8, i8, i8, i8 }
%struct.libraw_dnglens_t = type { float, float, float, float }
%struct.libraw_makernotes_lens_t = type { i64, [128 x i8], i16, i16, i64, i16, i16, [64 x i8], i16, [16 x i8], [16 x i8], float, float, float, float, float, float, float, float, float, float, float, float, float, float, float, i64, [128 x i8], i64, [128 x i8], i64, [128 x i8], i16, float }
%struct.libraw_makernotes_t = type { %struct.libraw_canon_makernotes_t, %struct.libraw_nikon_makernotes_t, %struct.libraw_hasselblad_makernotes_t, %struct.libraw_fuji_info_t, %struct.libraw_olympus_makernotes_t, %struct.libraw_sony_info_t, %struct.libraw_kodak_makernotes_t, %struct.libraw_panasonic_makernotes_t, %struct.libraw_pentax_makernotes_t, %struct.libraw_p1_makernotes_t, %struct.libraw_ricoh_makernotes_t, %struct.libraw_samsung_makernotes_t, %struct.libraw_metadata_common_t }
%struct.libraw_canon_makernotes_t = type { i32, i32, i32, i32, [4 x i32], i32, [4 x i32], i16, i16, i8, i16, i16, i16, i16, i16, i16, i16, i16, i16, i16, i16, i16, i16, i32, float, i16, i16, i16, i32, i16, i32, i32, i16, i32, %struct.libraw_area_t, %struct.libraw_area_t, %struct.libraw_area_t, %struct.libraw_area_t, %struct.libraw_area_t, [2 x i16] }
%struct.libraw_area_t = type { i16, i16, i16, i16 }
%struct.libraw_nikon_makernotes_t = type { double, i16, i16, [7 x i8], i8, i8, [13 x i8], [20 x i8], [4 x i8], [4 x i8], [4 x i8], i8, i8, i8, i8, i8, [2 x i8], i8, i8, i8, i8, i8, [4 x i8], [4 x i8], i8, i16, i32, i32, i32, i32, [4 x double], i8, i8, i8, i32, i32, i32, i8, [4 x i16], i16, %struct.libraw_sensor_highspeed_crop_t, i16, i16, i16, i32, [20 x i8], [20 x i8], i32, i16, double, double, double }
%struct.libraw_sensor_highspeed_crop_t = type { i16, i16, i16, i16 }
%struct.libraw_hasselblad_makernotes_t = type { i32, double, [8 x i8], [64 x i8], [64 x i8], i32, i32, i32, i32, [32 x i8], [64 x i8], i32, [2 x i32], [2 x i32], [4 x [3 x double]] }
%struct.libraw_fuji_info_t = type { float, i16, i16, i16, i16, i16, i16, i16, i16, [33 x i8], [33 x i8], float, i16, i16, [2 x i16], i16, i32, i32, i16, [3 x i16], i16, i16, i16, i16, i16, i32, i16, [13 x i8], [5 x i8], [5 x i8], i32, i16, i32, i16, [9 x i16], [32 x i32], i32, i32, i32, [2 x float], i32 }
%struct.libraw_olympus_makernotes_t = type { [6 x i8], i16, [2 x i32], [5 x i16], i16, [2 x i16], i16, i16, [64 x i32], [5 x double], i16, i8, [3 x i16], [3 x i32], i16, i16, i16, i16, double, [4 x i16], [2 x i32], i8, i32, i16, i16 }
%struct.libraw_sony_info_t = type { i16, i8, i8, i32, i8, i32, i8, i8, i16, [2 x i16], i8, i8, i16, [10 x i8], i8, i8, [4 x i16], i16, i8, i8, i8, i16, i32, i16, [2 x i16], i16, i16, i16, i16, i16, i16, i16, i32, float, i16, i32, i32, i16, [20 x i8], i32, i16, i32, i8, i8, i16, i16, i16, i16, i16, i16, i16, i16, i16, i32, i16, [16 x i8], float }
%struct.libraw_kodak_makernotes_t = type { i16, i16, i16, i16, i16, i16, [3 x [3 x float]], [3 x [3 x float]], [3 x [3 x float]], [3 x [3 x float]], [3 x [3 x float]], [3 x [3 x float]], i16, i16, i16, i16, float, float }
%struct.libraw_panasonic_makernotes_t = type { i16, i16, [8 x float], i32, float, [3 x i32], i16, i16, i32, i32 }
%struct.libraw_pentax_makernotes_t = type { [4 x i8], [2 x i16], [2 x i16], i16, i32, i32, i16, i16, i8, i8, i16 }
%struct.libraw_p1_makernotes_t = type { [64 x i8], [64 x i8], [256 x i8], [64 x i8] }
%struct.libraw_ricoh_makernotes_t = type { i16, [2 x i32], [2 x i32], i16, i32, i32, i32, i32, i16, i16, i16, i16, i16, i16, double, double }
%struct.libraw_samsung_makernotes_t = type { [4 x i32], [4 x i32], [2 x i32], [11 x i32], double, i32, [32 x i8] }
%struct.libraw_metadata_common_t = type { float, float, float, float, float, float, float, float, float, float, float, float, float, float, float, float, i16, [128 x i8], float, [4 x %struct.libraw_afinfo_item_t], i32 }
%struct.libraw_afinfo_item_t = type { i32, i16, i32, i32, ptr }
%struct.libraw_shootinginfo_t = type { i16, i16, i16, i16, i16, i16, i16, [64 x i8], [64 x i8] }
%struct.libraw_output_params_t = type { [4 x i32], [4 x i32], [4 x double], [6 x double], [4 x float], float, float, i32, i32, i32, i32, i32, i32, i32, ptr, ptr, ptr, ptr, i32, i32, i32, i32, i32, i32, [4 x i32], i32, i32, float, float, i32, i32, i32, i32, i32, i32, i32, i32, float, float, i32, i32 }
%struct.libraw_raw_unpack_params_t = type { i32, i32, i32, i32, i32, i32, i32, float, [5 x i8], ptr }
%struct.libraw_colordata_t = type { [65536 x i16], [4104 x i32], i32, i32, i32, [4 x i64], float, float, [8 x [8 x i16]], [4 x float], [4 x float], [3 x [4 x float]], [3 x [4 x float]], [3 x [4 x float]], [4 x [3 x float]], %struct.ph1_t, float, float, [64 x i8], [64 x i8], [64 x i8], [64 x i8], [17 x i8], [64 x i8], ptr, i32, [8 x i32], [2 x %struct.libraw_dng_color_t], %struct.libraw_dng_levels_t, [256 x [4 x i32]], [64 x [5 x float]], i32, [2 x %struct.libraw_P1_color_t], i32, i32 }
%struct.ph1_t = type { i32, i32, i32, i32, i32, i32, i32, i32, float }
%struct.libraw_dng_color_t = type { i32, i16, [4 x [4 x float]], [4 x [3 x float]], [3 x [4 x float]] }
%struct.libraw_dng_levels_t = type { i32, [4104 x i32], i32, [4104 x float], float, [4 x i32], [4 x i16], [4 x float], i32, [4 x float], [4 x float], float, float }
%struct.libraw_P1_color_t = type { [9 x float] }
%struct.libraw_imgother_t = type { float, float, float, float, i64, i32, [32 x i32], %struct.libraw_gps_info_t, [512 x i8], [64 x i8], [4 x float] }
%struct.libraw_gps_info_t = type { [3 x float], [3 x float], [3 x float], float, i8, i8, i8, i8, i8 }
%struct.libraw_thumbnail_t = type { i32, i16, i16, i32, i32, ptr }
%struct.libraw_thumbnail_list_t = type { i32, [8 x %struct.libraw_thumbnail_item_t] }
%struct.libraw_thumbnail_item_t = type { i32, i16, i16, i16, i32, i32, i64 }
%struct.libraw_rawdata_t = type { ptr, ptr, ptr, ptr, ptr, ptr, ptr, ptr, ptr, %struct.libraw_iparams_t, %struct.libraw_image_sizes_t, %struct.libraw_internal_output_params_t, %struct.libraw_colordata_t }
%struct.libraw_internal_output_params_t = type { i32, i32, i32, i16, i16 }
%struct.libraw_internal_data_t = type { %struct.internal_data_t, %struct.libraw_internal_output_params_t, %struct.output_data_t, %struct.identify_data_t, %struct.unpacker_data_t }
%struct.internal_data_t = type { ptr, ptr, i32, ptr, i64, i64, [4 x i32] }
%struct.output_data_t = type { ptr, ptr }
%struct.identify_data_t = type { i32, i64, i64, i32, i32, i32 }
%struct.unpacker_data_t = type { i16, [4 x i16], [3 x i16], i32, i64, i64, i64, i64, i64, i64, i32, i32, i32, i32, i32, i32, i32, i32, i32, i32, i32, i32, i32, i32, i32, i32, i32, i64, i32, i32, i32, i32, i32, i32, i32, i32, i32, %struct.pana8_tags_t, [16 x %struct.crx_data_header_t], i32, i32, i16, i16, i32, i32, i32, i32, i32, i32, i32, [20 x i32], i16 }
%struct.pana8_tags_t = type { [6 x i32], [6 x i16], i16, [4 x i16], [17 x i16], [17 x i16], [17 x i16], i16, i16, [5 x i64], [5 x i16], [5 x i32], [5 x i16], [5 x i16] }
%struct.crx_data_header_t = type { i32, i32, i32, i32, i32, i32, i32, i32, i32, i32, i32, i32, i32, i32, i32, i64, i32, ptr, i32, i32, i32, ptr, i32, ptr }
%struct.decode = type { [2 x ptr], i32 }
%struct.tiff_ifd_t = type { i32, i32, i32, i32, i32, i32, i32, i32, i32, i32, i32, i32, i32, i32, i32, ptr, i32, ptr, i32, i32, i32, i32, i32, i32, i32, float, i64, i64, i32, [2 x %struct.libraw_dng_color_t], %struct.libraw_dng_levels_t, i32 }
%class.libraw_memmgr = type <{ ptr, i32, [4 x i8] }>
%struct.libraw_callbacks_t = type { ptr, ptr, ptr, ptr, ptr, ptr, ptr, ptr, ptr, ptr, ptr, ptr, ptr, ptr, ptr, ptr, ptr }

; Function Attrs: mustprogress nounwind uwtable
define void @_ZN6LibRaw21setPentaxBodyFeaturesEy(ptr noundef nonnull align 8 dereferenceable(767680) %0, i64 noundef %1) #0 align 2 {
  %3 = alloca ptr, align 8
  %4 = alloca i64, align 8
  store ptr %0, ptr %3, align 8, !tbaa !6
  store i64 %1, ptr %4, align 8, !tbaa !11
  %5 = load ptr, ptr %3, align 8
  %6 = load i64, ptr %4, align 8, !tbaa !11
  %7 = getelementptr inbounds nuw %class.LibRaw, ptr %5, i32 0, i32 1
  %8 = getelementptr inbounds nuw %struct.libraw_data_t, ptr %7, i32 0, i32 3
  %9 = getelementptr inbounds nuw %struct.libraw_lensinfo_t, ptr %8, i32 0, i32 12
  %10 = getelementptr inbounds nuw %struct.libraw_makernotes_lens_t, ptr %9, i32 0, i32 4
  store i64 %6, ptr %10, align 8, !tbaa !13
  %11 = load i64, ptr %4, align 8, !tbaa !11
  switch i64 %11, label %95 [
    i64 76180, label %12
    i64 76450, label %12
    i64 76570, label %12
    i64 76640, label %12
    i64 76642, label %12
    i64 76670, label %12
    i64 76672, label %12
    i64 76700, label %12
    i64 76701, label %12
    i64 76706, label %12
    i64 76830, label %12
    i64 76832, label %12
    i64 77010, label %12
    i64 77012, label %12
    i64 77050, label %12
    i64 77170, label %12
    i64 77171, label %12
    i64 77240, label %12
    i64 77310, label %12
    i64 77420, label %12
    i64 77430, label %12
    i64 77560, label %12
    i64 77650, label %12
    i64 77680, label %12
    i64 77681, label %12
    i64 77750, label %12
    i64 77760, label %12
    i64 77770, label %12
    i64 77850, label %12
    i64 77860, label %12
    i64 77980, label %12
    i64 78420, label %12
    i64 78370, label %12
    i64 78380, label %12
    i64 77970, label %21
    i64 78400, label %21
    i64 77320, label %30
    i64 77840, label %30
    i64 77540, label %39
    i64 77670, label %39
    i64 77690, label %48
    i64 77870, label %48
    i64 77700, label %57
    i64 78350, label %74
    i64 78490, label %74
  ]

12:                                               ; preds = %2, %2, %2, %2, %2, %2, %2, %2, %2, %2, %2, %2, %2, %2, %2, %2, %2, %2, %2, %2, %2, %2, %2, %2, %2, %2, %2, %2, %2, %2, %2, %2, %2, %2
  %13 = getelementptr inbounds nuw %class.LibRaw, ptr %5, i32 0, i32 1
  %14 = getelementptr inbounds nuw %struct.libraw_data_t, ptr %13, i32 0, i32 3
  %15 = getelementptr inbounds nuw %struct.libraw_lensinfo_t, ptr %14, i32 0, i32 12
  %16 = getelementptr inbounds nuw %struct.libraw_makernotes_lens_t, ptr %15, i32 0, i32 6
  store i16 33, ptr %16, align 2, !tbaa !74
  %17 = getelementptr inbounds nuw %class.LibRaw, ptr %5, i32 0, i32 1
  %18 = getelementptr inbounds nuw %struct.libraw_data_t, ptr %17, i32 0, i32 3
  %19 = getelementptr inbounds nuw %struct.libraw_lensinfo_t, ptr %18, i32 0, i32 12
  %20 = getelementptr inbounds nuw %struct.libraw_makernotes_lens_t, ptr %19, i32 0, i32 5
  store i16 1, ptr %20, align 8, !tbaa !75
  br label %104

21:                                               ; preds = %2, %2
  %22 = getelementptr inbounds nuw %class.LibRaw, ptr %5, i32 0, i32 1
  %23 = getelementptr inbounds nuw %struct.libraw_data_t, ptr %22, i32 0, i32 3
  %24 = getelementptr inbounds nuw %struct.libraw_lensinfo_t, ptr %23, i32 0, i32 12
  %25 = getelementptr inbounds nuw %struct.libraw_makernotes_lens_t, ptr %24, i32 0, i32 6
  store i16 33, ptr %25, align 2, !tbaa !74
  %26 = getelementptr inbounds nuw %class.LibRaw, ptr %5, i32 0, i32 1
  %27 = getelementptr inbounds nuw %struct.libraw_data_t, ptr %26, i32 0, i32 3
  %28 = getelementptr inbounds nuw %struct.libraw_lensinfo_t, ptr %27, i32 0, i32 12
  %29 = getelementptr inbounds nuw %struct.libraw_makernotes_lens_t, ptr %28, i32 0, i32 5
  store i16 2, ptr %29, align 8, !tbaa !75
  br label %104

30:                                               ; preds = %2, %2
  %31 = getelementptr inbounds nuw %class.LibRaw, ptr %5, i32 0, i32 1
  %32 = getelementptr inbounds nuw %struct.libraw_data_t, ptr %31, i32 0, i32 3
  %33 = getelementptr inbounds nuw %struct.libraw_lensinfo_t, ptr %32, i32 0, i32 12
  %34 = getelementptr inbounds nuw %struct.libraw_makernotes_lens_t, ptr %33, i32 0, i32 6
  store i16 32, ptr %34, align 2, !tbaa !74
  %35 = getelementptr inbounds nuw %class.LibRaw, ptr %5, i32 0, i32 1
  %36 = getelementptr inbounds nuw %struct.libraw_data_t, ptr %35, i32 0, i32 3
  %37 = getelementptr inbounds nuw %struct.libraw_lensinfo_t, ptr %36, i32 0, i32 12
  %38 = getelementptr inbounds nuw %struct.libraw_makernotes_lens_t, ptr %37, i32 0, i32 5
  store i16 9, ptr %38, align 8, !tbaa !75
  br label %104

39:                                               ; preds = %2, %2
  %40 = getelementptr inbounds nuw %class.LibRaw, ptr %5, i32 0, i32 1
  %41 = getelementptr inbounds nuw %struct.libraw_data_t, ptr %40, i32 0, i32 3
  %42 = getelementptr inbounds nuw %struct.libraw_lensinfo_t, ptr %41, i32 0, i32 12
  %43 = getelementptr inbounds nuw %struct.libraw_makernotes_lens_t, ptr %42, i32 0, i32 6
  store i16 34, ptr %43, align 2, !tbaa !74
  %44 = getelementptr inbounds nuw %class.LibRaw, ptr %5, i32 0, i32 1
  %45 = getelementptr inbounds nuw %struct.libraw_data_t, ptr %44, i32 0, i32 3
  %46 = getelementptr inbounds nuw %struct.libraw_lensinfo_t, ptr %45, i32 0, i32 12
  %47 = getelementptr inbounds nuw %struct.libraw_makernotes_lens_t, ptr %46, i32 0, i32 5
  store i16 6, ptr %47, align 8, !tbaa !75
  br label %104

48:                                               ; preds = %2, %2
  %49 = getelementptr inbounds nuw %class.LibRaw, ptr %5, i32 0, i32 1
  %50 = getelementptr inbounds nuw %struct.libraw_data_t, ptr %49, i32 0, i32 3
  %51 = getelementptr inbounds nuw %struct.libraw_lensinfo_t, ptr %50, i32 0, i32 12
  %52 = getelementptr inbounds nuw %struct.libraw_makernotes_lens_t, ptr %51, i32 0, i32 6
  store i16 34, ptr %52, align 2, !tbaa !74
  %53 = getelementptr inbounds nuw %class.LibRaw, ptr %5, i32 0, i32 1
  %54 = getelementptr inbounds nuw %struct.libraw_data_t, ptr %53, i32 0, i32 3
  %55 = getelementptr inbounds nuw %struct.libraw_lensinfo_t, ptr %54, i32 0, i32 12
  %56 = getelementptr inbounds nuw %struct.libraw_makernotes_lens_t, ptr %55, i32 0, i32 5
  store i16 7, ptr %56, align 8, !tbaa !75
  br label %104

57:                                               ; preds = %2
  %58 = getelementptr inbounds nuw %class.LibRaw, ptr %5, i32 0, i32 1
  %59 = getelementptr inbounds nuw %struct.libraw_data_t, ptr %58, i32 0, i32 3
  %60 = getelementptr inbounds nuw %struct.libraw_lensinfo_t, ptr %59, i32 0, i32 12
  %61 = getelementptr inbounds nuw %struct.libraw_makernotes_lens_t, ptr %60, i32 0, i32 3
  store i16 43, ptr %61, align 2, !tbaa !76
  %62 = getelementptr inbounds nuw %class.LibRaw, ptr %5, i32 0, i32 1
  %63 = getelementptr inbounds nuw %struct.libraw_data_t, ptr %62, i32 0, i32 3
  %64 = getelementptr inbounds nuw %struct.libraw_lensinfo_t, ptr %63, i32 0, i32 12
  %65 = getelementptr inbounds nuw %struct.libraw_makernotes_lens_t, ptr %64, i32 0, i32 6
  store i16 43, ptr %65, align 2, !tbaa !74
  %66 = getelementptr inbounds nuw %class.LibRaw, ptr %5, i32 0, i32 1
  %67 = getelementptr inbounds nuw %struct.libraw_data_t, ptr %66, i32 0, i32 3
  %68 = getelementptr inbounds nuw %struct.libraw_lensinfo_t, ptr %67, i32 0, i32 12
  %69 = getelementptr inbounds nuw %struct.libraw_makernotes_lens_t, ptr %68, i32 0, i32 5
  store i16 7, ptr %69, align 8, !tbaa !75
  %70 = getelementptr inbounds nuw %class.LibRaw, ptr %5, i32 0, i32 1
  %71 = getelementptr inbounds nuw %struct.libraw_data_t, ptr %70, i32 0, i32 3
  %72 = getelementptr inbounds nuw %struct.libraw_lensinfo_t, ptr %71, i32 0, i32 12
  %73 = getelementptr inbounds nuw %struct.libraw_makernotes_lens_t, ptr %72, i32 0, i32 8
  store i16 2, ptr %73, align 4, !tbaa !77
  br label %104

74:                                               ; preds = %2, %2
  %75 = getelementptr inbounds nuw %class.LibRaw, ptr %5, i32 0, i32 1
  %76 = getelementptr inbounds nuw %struct.libraw_data_t, ptr %75, i32 0, i32 3
  %77 = getelementptr inbounds nuw %struct.libraw_lensinfo_t, ptr %76, i32 0, i32 12
  %78 = getelementptr inbounds nuw %struct.libraw_makernotes_lens_t, ptr %77, i32 0, i32 6
  store i16 43, ptr %78, align 2, !tbaa !74
  %79 = getelementptr inbounds nuw %class.LibRaw, ptr %5, i32 0, i32 1
  %80 = getelementptr inbounds nuw %struct.libraw_data_t, ptr %79, i32 0, i32 3
  %81 = getelementptr inbounds nuw %struct.libraw_lensinfo_t, ptr %80, i32 0, i32 12
  %82 = getelementptr inbounds nuw %struct.libraw_makernotes_lens_t, ptr %81, i32 0, i32 3
  store i16 43, ptr %82, align 2, !tbaa !76
  %83 = getelementptr inbounds nuw %class.LibRaw, ptr %5, i32 0, i32 1
  %84 = getelementptr inbounds nuw %struct.libraw_data_t, ptr %83, i32 0, i32 3
  %85 = getelementptr inbounds nuw %struct.libraw_lensinfo_t, ptr %84, i32 0, i32 12
  %86 = getelementptr inbounds nuw %struct.libraw_makernotes_lens_t, ptr %85, i32 0, i32 5
  store i16 1, ptr %86, align 8, !tbaa !75
  %87 = getelementptr inbounds nuw %class.LibRaw, ptr %5, i32 0, i32 1
  %88 = getelementptr inbounds nuw %struct.libraw_data_t, ptr %87, i32 0, i32 3
  %89 = getelementptr inbounds nuw %struct.libraw_lensinfo_t, ptr %88, i32 0, i32 12
  %90 = getelementptr inbounds nuw %struct.libraw_makernotes_lens_t, ptr %89, i32 0, i32 2
  store i16 1, ptr %90, align 8, !tbaa !78
  %91 = getelementptr inbounds nuw %class.LibRaw, ptr %5, i32 0, i32 1
  %92 = getelementptr inbounds nuw %struct.libraw_data_t, ptr %91, i32 0, i32 3
  %93 = getelementptr inbounds nuw %struct.libraw_lensinfo_t, ptr %92, i32 0, i32 12
  %94 = getelementptr inbounds nuw %struct.libraw_makernotes_lens_t, ptr %93, i32 0, i32 8
  store i16 1, ptr %94, align 4, !tbaa !77
  br label %104

95:                                               ; preds = %2
  %96 = getelementptr inbounds nuw %class.LibRaw, ptr %5, i32 0, i32 1
  %97 = getelementptr inbounds nuw %struct.libraw_data_t, ptr %96, i32 0, i32 3
  %98 = getelementptr inbounds nuw %struct.libraw_lensinfo_t, ptr %97, i32 0, i32 12
  %99 = getelementptr inbounds nuw %struct.libraw_makernotes_lens_t, ptr %98, i32 0, i32 3
  store i16 43, ptr %99, align 2, !tbaa !76
  %100 = getelementptr inbounds nuw %class.LibRaw, ptr %5, i32 0, i32 1
  %101 = getelementptr inbounds nuw %struct.libraw_data_t, ptr %100, i32 0, i32 3
  %102 = getelementptr inbounds nuw %struct.libraw_lensinfo_t, ptr %101, i32 0, i32 12
  %103 = getelementptr inbounds nuw %struct.libraw_makernotes_lens_t, ptr %102, i32 0, i32 6
  store i16 43, ptr %103, align 2, !tbaa !74
  br label %104

104:                                              ; preds = %95, %74, %57, %48, %39, %30, %21, %12
  ret void
}