; Function Attrs: mustprogress nofree norecurse nosync nounwind willreturn memory(argmem: write) uwtable
define void @_ZN6LibRaw21setPentaxBodyFeaturesEy(ptr noundef nonnull writeonly align 8 captures(none) dereferenceable(767680) initializes((1344, 1352), (1354, 1356)) %0, i64 noundef %1) local_unnamed_addr #0 align 2 {
  %3 = getelementptr inbounds nuw i8, ptr %0, i64 1344
  store i64 %1, ptr %3, align 8, !tbaa !6
  switch i64 %1, label %30 [
    i64 76180, label %4
    i64 76450, label %4
    i64 76570, label %4
    i64 76640, label %4
    i64 76642, label %4
    i64 76670, label %4
    i64 76672, label %4
    i64 76700, label %4
    i64 76701, label %4
    i64 76706, label %4
    i64 76830, label %4
    i64 76832, label %4
    i64 77010, label %4
    i64 77012, label %4
    i64 77050, label %4
    i64 77170, label %4
    i64 77171, label %4
    i64 77240, label %4
    i64 77310, label %4
    i64 77420, label %4
    i64 77430, label %4
    i64 77560, label %4
    i64 77650, label %4
    i64 77680, label %4
    i64 77681, label %4
    i64 77750, label %4
    i64 77760, label %4
    i64 77770, label %4
    i64 77850, label %4
    i64 77860, label %4
    i64 77980, label %4
    i64 78420, label %4
    i64 78370, label %4
    i64 78380, label %4
    i64 77970, label %7
    i64 78400, label %7
    i64 77320, label %10
    i64 77840, label %10
    i64 77540, label %13
    i64 77670, label %13
    i64 77690, label %16
    i64 77870, label %16
    i64 77700, label %19
    i64 78350, label %24
    i64 78490, label %24
  ]

4:                                                ; preds = %2, %2, %2, %2, %2, %2, %2, %2, %2, %2, %2, %2, %2, %2, %2, %2, %2, %2, %2, %2, %2, %2, %2, %2, %2, %2, %2, %2, %2, %2, %2, %2, %2, %2
  %5 = getelementptr inbounds nuw i8, ptr %0, i64 1354
  store i16 33, ptr %5, align 2, !tbaa !71
  %6 = getelementptr inbounds nuw i8, ptr %0, i64 1352
  store i16 1, ptr %6, align 8, !tbaa !72
  br label %33

7:                                                ; preds = %2, %2
  %8 = getelementptr inbounds nuw i8, ptr %0, i64 1354
  store i16 33, ptr %8, align 2, !tbaa !71
  %9 = getelementptr inbounds nuw i8, ptr %0, i64 1352
  store i16 2, ptr %9, align 8, !tbaa !72
  br label %33

10:                                               ; preds = %2, %2
  %11 = getelementptr inbounds nuw i8, ptr %0, i64 1354
  store i16 32, ptr %11, align 2, !tbaa !71
  %12 = getelementptr inbounds nuw i8, ptr %0, i64 1352
  store i16 9, ptr %12, align 8, !tbaa !72
  br label %33

13:                                               ; preds = %2, %2
  %14 = getelementptr inbounds nuw i8, ptr %0, i64 1354
  store i16 34, ptr %14, align 2, !tbaa !71
  %15 = getelementptr inbounds nuw i8, ptr %0, i64 1352
  store i16 6, ptr %15, align 8, !tbaa !72
  br label %33

16:                                               ; preds = %2, %2
  %17 = getelementptr inbounds nuw i8, ptr %0, i64 1354
  store i16 34, ptr %17, align 2, !tbaa !71
  %18 = getelementptr inbounds nuw i8, ptr %0, i64 1352
  store i16 7, ptr %18, align 8, !tbaa !72
  br label %33

19:                                               ; preds = %2
  %20 = getelementptr inbounds nuw i8, ptr %0, i64 1338
  store i16 43, ptr %20, align 2, !tbaa !73
  %21 = getelementptr inbounds nuw i8, ptr %0, i64 1354
  store i16 43, ptr %21, align 2, !tbaa !71
  %22 = getelementptr inbounds nuw i8, ptr %0, i64 1352
  store i16 7, ptr %22, align 8, !tbaa !72
  %23 = getelementptr inbounds nuw i8, ptr %0, i64 1420
  store i16 2, ptr %23, align 4, !tbaa !74
  br label %33

24:                                               ; preds = %2, %2
  %25 = getelementptr inbounds nuw i8, ptr %0, i64 1354
  store i16 43, ptr %25, align 2, !tbaa !71
  %26 = getelementptr inbounds nuw i8, ptr %0, i64 1338
  store i16 43, ptr %26, align 2, !tbaa !73
  %27 = getelementptr inbounds nuw i8, ptr %0, i64 1352
  store i16 1, ptr %27, align 8, !tbaa !72
  %28 = getelementptr inbounds nuw i8, ptr %0, i64 1336
  store i16 1, ptr %28, align 8, !tbaa !75
  %29 = getelementptr inbounds nuw i8, ptr %0, i64 1420
  store i16 1, ptr %29, align 4, !tbaa !74
  br label %33

30:                                               ; preds = %2
  %31 = getelementptr inbounds nuw i8, ptr %0, i64 1338
  store i16 43, ptr %31, align 2, !tbaa !73
  %32 = getelementptr inbounds nuw i8, ptr %0, i64 1354
  store i16 43, ptr %32, align 2, !tbaa !71
  br label %33

33:                                               ; preds = %30, %24, %19, %16, %13, %10, %7, %4
  ret void
}